target datalayout = "e-m:e-p270:32:32-p271:32:32-p272:64:64-i64:64-i128:128-f80:128-n8:16:32:64-S128"
target triple = "x86_64-pc-linux-gnu"

%struct.nstime_t = type { i64, i32 }
%struct._packet_info = type { ptr, ptr, i32, i32, %struct.nstime_t, %struct.nstime_t, %struct.nstime_t, i32, ptr, ptr, ptr, ptr, %struct._address, %struct._address, %struct._address, %struct._address, %struct._address, %struct._address, i32, ptr, i32, %struct.anon, i32, i32, i32, i32, ptr, i32, ptr, ptr, i16, i16, i32, i32, i16, i32, i32, ptr, ptr, ptr, i8, i8, i16, i16, i16, i32, i16, i16, ptr, ptr, ptr, ptr, ptr, i32 }
%struct._address = type { i32, i32, ptr, ptr }
%struct.anon = type { i8, [3 x i8] }

@cdb_control_fields = hidden constant [6 x ptr] [ptr @hf_scsi_control_vendor_specific, ptr @hf_scsi_control_reserved, ptr @hf_scsi_control_naca, ptr @hf_scsi_control_obs1, ptr @hf_scsi_control_obs2, ptr null], align 16
@hf_scsi_control = hidden global i32 0, align 4
@ett_scsi_control = hidden global i32 0, align 4
@dissect_spc_preventallowmediaremoval.prevent_allow_fields = internal constant [2 x ptr] [ptr @hf_scsi_prevent_allow_prevent, ptr null], align 16
@hf_scsi_prevent_allow_flags = internal global i32 0, align 4
@ett_scsi_prevent_allow = internal global i32 0, align 4
@.str.47 = private unnamed_addr constant [9 x i8] c" PREVENT\00", align 1
@.str.48 = private unnamed_addr constant [7 x i8] c" ALLOW\00", align 1

; Function Attrs: nounwind uwtable
define hidden void @dissect_spc_preventallowmediaremoval(ptr noundef %0, ptr noundef %1, ptr noundef %2, i32 noundef %3, i32 noundef %4, i32 noundef %5, i32 noundef %6, ptr noundef %7) #0 {
  %9 = alloca ptr, align 8
  %10 = alloca ptr, align 8
  %11 = alloca ptr, align 8
  %12 = alloca i32, align 4
  %13 = alloca i32, align 4
  %14 = alloca i32, align 4
  %15 = alloca i32, align 4
  %16 = alloca ptr, align 8
  %17 = alloca i8, align 1
  store ptr %0, ptr %9, align 8
  store ptr %1, ptr %10, align 8
  store ptr %2, ptr %11, align 8
  store i32 %3, ptr %12, align 4
  store i32 %4, ptr %13, align 4
  store i32 %5, ptr %14, align 4
  store i32 %6, ptr %15, align 4
  store ptr %7, ptr %16, align 8
  %18 = load i32, ptr %13, align 4
  %19 = icmp ne i32 %18, 0
  br i1 %19, label %20, label %55

20:                                               ; preds = %8
  %21 = load i32, ptr %14, align 4
  %22 = icmp ne i32 %21, 0
  br i1 %22, label %23, label %55

23:                                               ; preds = %20
  %24 = load ptr, ptr %11, align 8
  %25 = load ptr, ptr %9, align 8
  %26 = load i32, ptr %12, align 4
  %27 = add i32 %26, 3
  %28 = load i32, ptr @hf_scsi_prevent_allow_flags, align 4
  %29 = load i32, ptr @ett_scsi_prevent_allow, align 4
  %30 = call ptr @proto_tree_add_bitmask(ptr noundef %24, ptr noundef %25, i32 noundef %27, i32 noundef %28, i32 noundef %29, ptr noundef @dissect_spc_preventallowmediaremoval.prevent_allow_fields, i32 noundef 0)
  %31 = load ptr, ptr %9, align 8
  %32 = load i32, ptr %12, align 4
  %33 = add i32 %32, 3
  %34 = call zeroext i8 @tvb_get_guint8(ptr noundef %31, i32 noundef %33)
  store i8 %34, ptr %17, align 1
  %35 = load i8, ptr %17, align 1
  %36 = zext i8 %35 to i32
  %37 = and i32 %36, 1
  %38 = icmp ne i32 %37, 0
  br i1 %38, label %39, label %43

39:                                               ; preds = %23
  %40 = load ptr, ptr %10, align 8
  %41 = getelementptr inbounds %struct._packet_info, ptr %40, i32 0, i32 1
  %42 = load ptr, ptr %41, align 8
  call void @col_append_str(ptr noundef %42, i32 noundef 25, ptr noundef @.str.47)
  br label %47

43:                                               ; preds = %23
  %44 = load ptr, ptr %10, align 8
  %45 = getelementptr inbounds %struct._packet_info, ptr %44, i32 0, i32 1
  %46 = load ptr, ptr %45, align 8
  call void @col_append_str(ptr noundef %46, i32 noundef 25, ptr noundef @.str.48)
  br label %47

47:                                               ; preds = %43, %39
  %48 = load ptr, ptr %11, align 8
  %49 = load ptr, ptr %9, align 8
  %50 = load i32, ptr %12, align 4
  %51 = add i32 %50, 4
  %52 = load i32, ptr @hf_scsi_control, align 4
  %53 = load i32, ptr @ett_scsi_control, align 4
  %54 = call ptr @proto_tree_add_bitmask(ptr noundef %48, ptr noundef %49, i32 noundef %51, i32 noundef %52, i32 noundef %53, ptr noundef @cdb_control_fields, i32 noundef 0)
  br label %55

55:                                               ; preds = %47, %20, %8
  ret void
}