; Function Attrs: nounwind uwtable
define hidden void @dissect_spc_preventallowmediaremoval(ptr noundef %0, ptr noundef readonly captures(none) %1, ptr noundef %2, i32 noundef %3, i32 noundef %4, i32 noundef %5, i32 %6, ptr readnone captures(none) %7) #0 {
  %9 = icmp ne i32 %4, 0
  %10 = icmp ne i32 %5, 0
  %or.cond = and i1 %9, %10
  br i1 %or.cond, label %11, label %24

11:                                               ; preds = %8
  %12 = add i32 %3, 3
  %13 = load i32, ptr @hf_scsi_prevent_allow_flags, align 4
  %14 = load i32, ptr @ett_scsi_prevent_allow, align 4
  %15 = tail call ptr @proto_tree_add_bitmask(ptr noundef %2, ptr noundef %0, i32 noundef %12, i32 noundef %13, i32 noundef %14, ptr noundef nonnull @dissect_spc_preventallowmediaremoval.prevent_allow_fields, i32 noundef 0) #10
  %16 = tail call zeroext i8 @tvb_get_guint8(ptr noundef %0, i32 noundef %12) #10
  %17 = and i8 %16, 1
  %.not = icmp eq i8 %17, 0
  %18 = getelementptr inbounds nuw i8, ptr %1, i64 8
  %19 = load ptr, ptr %18, align 8
  %.str.48..str.47 = select i1 %.not, ptr @.str.48, ptr @.str.47
  tail call void @col_append_str(ptr noundef %19, i32 noundef 25, ptr noundef nonnull %.str.48..str.47) #10
  %20 = add i32 %3, 4
  %21 = load i32, ptr @hf_scsi_control, align 4
  %22 = load i32, ptr @ett_scsi_control, align 4
  %23 = tail call ptr @proto_tree_add_bitmask(ptr noundef %2, ptr noundef %0, i32 noundef %20, i32 noundef %21, i32 noundef %22, ptr noundef nonnull @cdb_control_fields, i32 noundef 0) #10
  br label %24

24:                                               ; preds = %11, %8
  ret void
}